; Function Attrs: mustprogress nofree norecurse nosync nounwind willreturn memory(argmem: write) uwtable
define hidden void @_ZN7nanogui9BoxLayoutC2ENS_11OrientationENS_9AlignmentEii(ptr nocapture noundef nonnull writeonly align 8 dereferenceable(28) %0, i32 noundef %1, i8 noundef zeroext %2, i32 noundef %3, i32 noundef %4) unnamed_addr #0 align 2 {
  %6 = getelementptr inbounds i8, ptr %0, i64 8
  store i32 0, ptr %6, align 8
  store ptr getelementptr inbounds ({ [6 x ptr] }, ptr @_ZTVN7nanogui9BoxLayoutE, i64 0, i32 0, i64 2), ptr %0, align 8
  %7 = getelementptr inbounds i8, ptr %0, i64 12
  store i32 %1, ptr %7, align 4
  %8 = getelementptr inbounds i8, ptr %0, i64 16
  store i8 %2, ptr %8, align 8
  %9 = getelementptr inbounds i8, ptr %0, i64 20
  store i32 %3, ptr %9, align 4
  %10 = getelementptr inbounds i8, ptr %0, i64 24
  store i32 %4, ptr %10, align 8
  ret void
}